target datalayout = "e-m:e-p270:32:32-p271:32:32-p272:64:64-i64:64-i128:128-f80:128-n8:16:32:64-S128"
target triple = "x86_64-unknown-linux-gnu"

%"class.std::__shared_count" = type { ptr }
%"class.std::shared_ptr.49" = type { %"class.std::__shared_ptr.50" }
%"class.std::__shared_ptr.50" = type { ptr, %"class.std::__shared_count" }
%"class.std::optional.111" = type { %"struct.std::_Optional_base.112" }
%"struct.std::_Optional_base.112" = type { %"struct.std::_Optional_payload.114" }
%"struct.std::_Optional_payload.114" = type { %"struct.std::_Optional_payload_base.115" }
%"struct.std::_Optional_payload_base.115" = type { %"union.std::_Optional_payload_base<bool>::_Storage", i8 }
%"union.std::_Optional_payload_base<bool>::_Storage" = type { %"struct.std::_Optional_payload_base<bool>::_Empty_byte" }
%"struct.std::_Optional_payload_base<bool>::_Empty_byte" = type { i8 }
%"class.facebook::velox::BaseVector" = type <{ ptr, %"class.std::shared_ptr.49", i8, [3 x i8], i32, %"class.boost::intrusive_ptr", ptr, ptr, i32, %"class.std::optional.98", %"class.std::optional.98", %"class.std::optional.98", %"class.std::optional.98", i32, i8, i8, i8, [5 x i8] }>
%"class.boost::intrusive_ptr" = type { ptr }
%"class.std::optional.98" = type { %"struct.std::_Optional_base.99" }
%"struct.std::_Optional_base.99" = type { %"struct.std::_Optional_payload.101" }
%"struct.std::_Optional_payload.101" = type { %"struct.std::_Optional_payload_base.base.103", [3 x i8] }
%"struct.std::_Optional_payload_base.base.103" = type <{ %"union.std::_Optional_payload_base<int>::_Storage", i8 }>
%"union.std::_Optional_payload_base<int>::_Storage" = type { i32 }
%"class.facebook::velox::BaseVector.base" = type <{ ptr, %"class.std::shared_ptr.49", i8, [3 x i8], i32, %"class.boost::intrusive_ptr", ptr, ptr, i32, %"class.std::optional.98", %"class.std::optional.98", %"class.std::optional.98", %"class.std::optional.98", i32, i8, i8, i8 }>
%"class.std::vector.137" = type { %"struct.std::_Vector_base.138" }
%"struct.std::_Vector_base.138" = type { %"struct.std::_Vector_base<boost::intrusive_ptr<facebook::velox::Buffer>, std::allocator<boost::intrusive_ptr<facebook::velox::Buffer>>>::_Vector_impl" }
%"struct.std::_Vector_base<boost::intrusive_ptr<facebook::velox::Buffer>, std::allocator<boost::intrusive_ptr<facebook::velox::Buffer>>>::_Vector_impl" = type { %"struct.std::_Vector_base<boost::intrusive_ptr<facebook::velox::Buffer>, std::allocator<boost::intrusive_ptr<facebook::velox::Buffer>>>::_Vector_impl_data" }
%"struct.std::_Vector_base<boost::intrusive_ptr<facebook::velox::Buffer>, std::allocator<boost::intrusive_ptr<facebook::velox::Buffer>>>::_Vector_impl_data" = type { ptr, ptr, ptr }
%"class.folly::F14FastSet" = type { %"class.folly::F14ValueSet" }
%"class.folly::F14ValueSet" = type { %"class.folly::f14::detail::F14BasicSet" }
%"class.folly::f14::detail::F14BasicSet" = type { %"class.folly::f14::detail::F14Table" }
%"class.folly::f14::detail::F14Table" = type { ptr, i64, %"struct.folly::f14::detail::SizeAndPackedBegin" }
%"struct.folly::f14::detail::SizeAndPackedBegin" = type { i64, %"class.folly::f14::detail::PackedChunkItemPtr" }
%"class.folly::f14::detail::PackedChunkItemPtr" = type { i64 }
%"struct.facebook::velox::SimpleVectorStats.199" = type { %"class.std::optional.200", %"class.std::optional.200" }
%"class.std::optional.200" = type { %"struct.std::_Optional_base.201" }
%"struct.std::_Optional_base.201" = type { %"struct.std::_Optional_payload.203" }
%"struct.std::_Optional_payload.203" = type { %"struct.std::_Optional_payload_base.base.205", [7 x i8] }
%"struct.std::_Optional_payload_base.base.205" = type <{ %"union.std::_Optional_payload_base<long>::_Storage", i8 }>
%"union.std::_Optional_payload_base<long>::_Storage" = type { i64 }
%"class.facebook::velox::SimpleVector.198" = type { %"class.facebook::velox::BaseVector.base", %"class.std::optional.111", i8, i32, [4 x i8], %"struct.facebook::velox::SimpleVectorStats.199" }
%"class.facebook::velox::Buffer" = type { ptr, ptr, ptr, i64, i64, %"struct.std::atomic", i8, [2 x i64] }
%"struct.std::atomic" = type { %"struct.std::__atomic_base" }
%"struct.std::__atomic_base" = type { i32 }
%"class.facebook::velox::FlatVector.303" = type { %"class.facebook::velox::SimpleVector.198", %"class.boost::intrusive_ptr", ptr, %"class.std::vector.137", %"class.folly::F14FastSet" }
%class.anon.436 = type { ptr, ptr, ptr, ptr, ptr }

@_ZN8facebook5velox4bitsL13kZeroBitmasksE = internal constant [8 x i8] c"\FE\FD\FB\F7\EF\DF\BF\7F", align 1

; Function Attrs: mustprogress nounwind uwtable
define linkonce_odr void @_ZN8facebook5velox4bits8clearBitImEEvPT_j(ptr noundef %bits, i32 noundef %idx) #2 comdat {
entry:
  %bits.addr = alloca ptr, align 8
  %idx.addr = alloca i32, align 4
  %bitsAs8Bit = alloca ptr, align 8
  store ptr %bits, ptr %bits.addr, align 8
  store i32 %idx, ptr %idx.addr, align 4
  %0 = load ptr, ptr %bits.addr, align 8
  store ptr %0, ptr %bitsAs8Bit, align 8
  %1 = load i32, ptr %idx.addr, align 4
  %rem = urem i32 %1, 8
  %idxprom = zext i32 %rem to i64
  %arrayidx = getelementptr inbounds [8 x i8], ptr @_ZN8facebook5velox4bitsL13kZeroBitmasksE, i64 0, i64 %idxprom
  %2 = load i8, ptr %arrayidx, align 1
  %conv = zext i8 %2 to i32
  %3 = load ptr, ptr %bitsAs8Bit, align 8
  %4 = load i32, ptr %idx.addr, align 4
  %div = udiv i32 %4, 8
  %idxprom1 = zext i32 %div to i64
  %arrayidx2 = getelementptr inbounds i8, ptr %3, i64 %idxprom1
  %5 = load i8, ptr %arrayidx2, align 1
  %conv3 = zext i8 %5 to i32
  %and = and i32 %conv3, %conv
  %conv4 = trunc i32 %and to i8
  store i8 %conv4, ptr %arrayidx2, align 1
  ret void
}

; Function Attrs: mustprogress nounwind uwtable
define linkonce_odr void @_ZN8facebook5velox4bits6setBitImEEvPT_j(ptr noundef %bits, i32 noundef %idx) #2 comdat {
entry:
  %bits.addr = alloca ptr, align 8
  %idx.addr = alloca i32, align 4
  %bitsAs8Bit = alloca ptr, align 8
  store ptr %bits, ptr %bits.addr, align 8
  store i32 %idx, ptr %idx.addr, align 4
  %0 = load ptr, ptr %bits.addr, align 8
  store ptr %0, ptr %bitsAs8Bit, align 8
  %1 = load i32, ptr %idx.addr, align 4
  %rem = urem i32 %1, 8
  %shl = shl i32 1, %rem
  %2 = load ptr, ptr %bitsAs8Bit, align 8
  %3 = load i32, ptr %idx.addr, align 4
  %div = udiv i32 %3, 8
  %idxprom = zext i32 %div to i64
  %arrayidx = getelementptr inbounds i8, ptr %2, i64 %idxprom
  %4 = load i8, ptr %arrayidx, align 1
  %conv = zext i8 %4 to i32
  %or = or i32 %conv, %shl
  %conv1 = trunc i32 %or to i8
  store i8 %conv1, ptr %arrayidx, align 1
  ret void
}

; Function Attrs: mustprogress uwtable
define linkonce_odr void @_ZN8facebook5velox4bits6setBitImEEvPT_jb(ptr noundef %bits, i32 noundef %idx, i1 noundef zeroext %value) #0 comdat {
entry:
  %bits.addr = alloca ptr, align 8
  %idx.addr = alloca i32, align 4
  %value.addr = alloca i8, align 1
  store ptr %bits, ptr %bits.addr, align 8
  store i32 %idx, ptr %idx.addr, align 4
  %frombool = zext i1 %value to i8
  store i8 %frombool, ptr %value.addr, align 1
  %0 = load i8, ptr %value.addr, align 1
  %tobool = trunc i8 %0 to i1
  br i1 %tobool, label %cond.true, label %cond.false

cond.true:                                        ; preds = %entry
  %1 = load ptr, ptr %bits.addr, align 8
  %2 = load i32, ptr %idx.addr, align 4
  call void @_ZN8facebook5velox4bits6setBitImEEvPT_j(ptr noundef %1, i32 noundef %2)
  br label %cond.end

cond.false:                                       ; preds = %entry
  %3 = load ptr, ptr %bits.addr, align 8
  %4 = load i32, ptr %idx.addr, align 4
  call void @_ZN8facebook5velox4bits8clearBitImEEvPT_j(ptr noundef %3, i32 noundef %4)
  br label %cond.end

cond.end:                                         ; preds = %cond.false, %cond.true
  ret void
}

; Function Attrs: mustprogress uwtable
define linkonce_odr void @_ZN8facebook5velox4bits7setNullEPmib(ptr noundef %bits, i32 noundef %index, i1 noundef zeroext %isNull) #0 comdat {
entry:
  %bits.addr = alloca ptr, align 8
  %index.addr = alloca i32, align 4
  %isNull.addr = alloca i8, align 1
  store ptr %bits, ptr %bits.addr, align 8
  store i32 %index, ptr %index.addr, align 4
  %frombool = zext i1 %isNull to i8
  store i8 %frombool, ptr %isNull.addr, align 1
  %0 = load ptr, ptr %bits.addr, align 8
  %1 = load i32, ptr %index.addr, align 4
  %2 = load i8, ptr %isNull.addr, align 1
  %tobool = trunc i8 %2 to i1
  %lnot = xor i1 %tobool, true
  call void @_ZN8facebook5velox4bits6setBitImEEvPT_jb(ptr noundef %0, i32 noundef %1, i1 noundef zeroext %lnot)
  ret void
}

; Function Attrs: mustprogress uwtable
define linkonce_odr noundef ptr @_ZNK8facebook5velox6Buffer9asMutableImEEPT_v(ptr noundef nonnull align 8 dereferenceable(64) %this) #0 comdat align 2 {
entry:
  %this.addr = alloca ptr, align 8
  store ptr %this, ptr %this.addr, align 8
  %this1 = load ptr, ptr %this.addr, align 8
  %vtable = load ptr, ptr %this1, align 8
  %vfn = getelementptr inbounds ptr, ptr %vtable, i64 3
  %0 = load ptr, ptr %vfn, align 8
  %call = call noundef zeroext i1 %0(ptr noundef nonnull align 8 dereferenceable(64) %this1)
  %lnot = xor i1 %call, true
  %lnot2 = xor i1 %lnot, true
  br i1 %lnot2, label %if.then, label %if.end

if.then:                                          ; preds = %entry
  call void @llvm.trap()
  br label %if.end

if.end:                                           ; preds = %if.then, %entry
  %data_ = getelementptr inbounds %"class.facebook::velox::Buffer", ptr %this1, i32 0, i32 2
  %1 = load ptr, ptr %data_, align 8
  ret ptr %1
}

; Function Attrs: mustprogress nounwind uwtable
define linkonce_odr noundef ptr @_ZNK5boost13intrusive_ptrIN8facebook5velox6BufferEEptEv(ptr noundef nonnull align 8 dereferenceable(8) %this) #2 comdat align 2 {
entry:
  %this.addr = alloca ptr, align 8
  store ptr %this, ptr %this.addr, align 8
  %this1 = load ptr, ptr %this.addr, align 8
  %px = getelementptr inbounds %"class.boost::intrusive_ptr", ptr %this1, i32 0, i32 0
  %0 = load ptr, ptr %px, align 8
  ret ptr %0
}

; Function Attrs: mustprogress uwtable
define linkonce_odr void @_ZN8facebook5velox10BaseVector11ensureNullsEv(ptr noundef nonnull align 8 dereferenceable(99) %this) #0 comdat align 2 {
entry:
  %this.addr = alloca ptr, align 8
  store ptr %this, ptr %this.addr, align 8
  %this1 = load ptr, ptr %this.addr, align 8
  %length_ = getelementptr inbounds %"class.facebook::velox::BaseVector", ptr %this1, i32 0, i32 8
  %0 = load i32, ptr %length_, align 8
  call void @_ZN8facebook5velox10BaseVector19ensureNullsCapacityEib(ptr noundef nonnull align 8 dereferenceable(99) %this1, i32 noundef %0, i1 noundef zeroext true)
  ret void
}

; Function Attrs: mustprogress nounwind uwtable
define linkonce_odr noundef zeroext i1 @_ZNK5boost13intrusive_ptrIN8facebook5velox6BufferEEntEv(ptr noundef nonnull align 8 dereferenceable(8) %this) #2 comdat align 2 {
entry:
  %this.addr = alloca ptr, align 8
  store ptr %this, ptr %this.addr, align 8
  %this1 = load ptr, ptr %this.addr, align 8
  %px = getelementptr inbounds %"class.boost::intrusive_ptr", ptr %this1, i32 0, i32 0
  %0 = load ptr, ptr %px, align 8
  %cmp = icmp eq ptr %0, null
  ret i1 %cmp
}

; Function Attrs: mustprogress nounwind uwtable
define linkonce_odr noundef zeroext i1 @_ZNK5boost13intrusive_ptrIN8facebook5velox6BufferEEcvbEv(ptr noundef nonnull align 8 dereferenceable(8) %this) #2 comdat align 2 {
entry:
  %this.addr = alloca ptr, align 8
  store ptr %this, ptr %this.addr, align 8
  %this1 = load ptr, ptr %this.addr, align 8
  %px = getelementptr inbounds %"class.boost::intrusive_ptr", ptr %this1, i32 0, i32 0
  %0 = load ptr, ptr %px, align 8
  %cmp = icmp ne ptr %0, null
  ret i1 %cmp
}

; Function Attrs: mustprogress uwtable
define linkonce_odr void @_ZN8facebook5velox10FlatVectorIlE12ensureValuesEv(ptr noundef nonnull align 8 dereferenceable(216) %this) #0 comdat align 2 {
entry:
  %this.addr = alloca ptr, align 8
  store ptr %this, ptr %this.addr, align 8
  %this1 = load ptr, ptr %this.addr, align 8
  %rawValues_ = getelementptr inbounds %"class.facebook::velox::FlatVector.303", ptr %this1, i32 0, i32 2
  %0 = load ptr, ptr %rawValues_, align 8
  %cmp = icmp eq ptr %0, null
  br i1 %cmp, label %if.then, label %if.end

if.then:                                          ; preds = %entry
  %call = call noundef ptr @_ZN8facebook5velox10FlatVectorIlE16mutableRawValuesEv(ptr noundef nonnull align 8 dereferenceable(216) %this1)
  br label %if.end

if.end:                                           ; preds = %if.then, %entry
  ret void
}

; Function Attrs: mustprogress uwtable
define linkonce_odr void @_ZN8facebook5velox10FlatVectorIlE3setEil(ptr noundef nonnull align 8 dereferenceable(216) %this, i32 noundef %idx, i64 noundef %value) #0 comdat align 2 {
entry:
  %this.addr.i = alloca ptr, align 8
  %idx.addr.i = alloca i32, align 4
  %isNull.addr.i = alloca i8, align 1
  %this.addr = alloca ptr, align 8
  %idx.addr = alloca i32, align 4
  %value.addr = alloca i64, align 8
  store ptr %this, ptr %this.addr, align 8
  store i32 %idx, ptr %idx.addr, align 4
  store i64 %value, ptr %value.addr, align 8
  %this1 = load ptr, ptr %this.addr, align 8
  call void @_ZN8facebook5velox10FlatVectorIlE12ensureValuesEv(ptr noundef nonnull align 8 dereferenceable(216) %this1)
  %0 = load i64, ptr %value.addr, align 8
  %rawValues_ = getelementptr inbounds %"class.facebook::velox::FlatVector.303", ptr %this1, i32 0, i32 2
  %1 = load ptr, ptr %rawValues_, align 8
  %2 = load i32, ptr %idx.addr, align 4
  %idxprom = sext i32 %2 to i64
  %arrayidx = getelementptr inbounds i64, ptr %1, i64 %idxprom
  store i64 %0, ptr %arrayidx, align 8
  %nulls_ = getelementptr inbounds %"class.facebook::velox::BaseVector", ptr %this1, i32 0, i32 5
  %call = call noundef zeroext i1 @_ZNK5boost13intrusive_ptrIN8facebook5velox6BufferEEcvbEv(ptr noundef nonnull align 8 dereferenceable(8) %nulls_) #3
  br i1 %call, label %if.then, label %if.end

if.then:                                          ; preds = %entry
  %3 = load i32, ptr %idx.addr, align 4
  store ptr %this1, ptr %this.addr.i, align 8
  store i32 %3, ptr %idx.addr.i, align 4
  store i8 0, ptr %isNull.addr.i, align 1
  %this1.i = load ptr, ptr %this.addr.i, align 8
  %nulls_.i = getelementptr inbounds %"class.facebook::velox::BaseVector", ptr %this1.i, i32 0, i32 5
  %call.i = call noundef zeroext i1 @_ZNK5boost13intrusive_ptrIN8facebook5velox6BufferEEntEv(ptr noundef nonnull align 8 dereferenceable(8) %nulls_.i) #3
  br i1 %call.i, label %land.lhs.true.i, label %if.end.i

land.lhs.true.i:                                  ; preds = %if.then
  %4 = load i8, ptr %isNull.addr.i, align 1
  %tobool.i = trunc i8 %4 to i1
  br i1 %tobool.i, label %if.end.i, label %if.then.i

if.then.i:                                        ; preds = %land.lhs.true.i
  br label %_ZN8facebook5velox10BaseVector7setNullEib.exit

if.end.i:                                         ; preds = %land.lhs.true.i, %if.then
  call void @_ZN8facebook5velox10BaseVector11ensureNullsEv(ptr noundef nonnull align 8 dereferenceable(99) %this1.i)
  %nulls_2.i = getelementptr inbounds %"class.facebook::velox::BaseVector", ptr %this1.i, i32 0, i32 5
  %call3.i = call noundef ptr @_ZNK5boost13intrusive_ptrIN8facebook5velox6BufferEEptEv(ptr noundef nonnull align 8 dereferenceable(8) %nulls_2.i) #3
  %call4.i = call noundef ptr @_ZNK8facebook5velox6Buffer9asMutableImEEPT_v(ptr noundef nonnull align 8 dereferenceable(64) %call3.i)
  %5 = load i32, ptr %idx.addr.i, align 4
  %6 = load i8, ptr %isNull.addr.i, align 1
  %tobool5.i = trunc i8 %6 to i1
  call void @_ZN8facebook5velox4bits7setNullEPmib(ptr noundef %call4.i, i32 noundef %5, i1 noundef zeroext %tobool5.i)
  br label %_ZN8facebook5velox10BaseVector7setNullEib.exit

_ZN8facebook5velox10BaseVector7setNullEib.exit:   ; preds = %if.end.i, %if.then.i
  br label %if.end

if.end:                                           ; preds = %_ZN8facebook5velox10BaseVector7setNullEib.exit, %entry
  ret void
}

; Function Attrs: mustprogress uwtable
define internal void @_ZZNK8facebook5velox9functions12_GLOBAL__N_116ArraySumFunctionIilE9applyCoreILb1EZNKS4_12applyNonFlatILb1EEEvRKNS0_17SelectivityVectorERNS0_4exec7EvalCtxEPNS0_11ArrayVectorERNSA_18LocalDecodedVectorEPNS0_10FlatVectorIlEEEUliE_ZNKS6_ILb1EEEvS9_SC_SE_SG_SJ_EUliE0_EEvS9_SC_PKSD_SJ_OT0_OT1_ENKUlT_E_clIiEEDaSS_(ptr noundef nonnull align 8 dereferenceable(40) %this, i32 noundef %row) #0 align 2 {
entry:
  %this.addr = alloca ptr, align 8
  %row.addr = alloca i32, align 4
  store ptr %this, ptr %this.addr, align 8
  store i32 %row, ptr %row.addr, align 4
  %this1 = load ptr, ptr %this.addr, align 8
  %0 = getelementptr inbounds %class.anon.436, ptr %this1, i32 0, i32 0
  %1 = load ptr, ptr %0, align 8
  %2 = getelementptr inbounds %class.anon.436, ptr %this1, i32 0, i32 1
  %3 = load ptr, ptr %2, align 8
  %4 = load ptr, ptr %3, align 8
  %5 = load i32, ptr %row.addr, align 4
  %6 = load i32, ptr %row.addr, align 4
  %7 = getelementptr inbounds %class.anon.436, ptr %this1, i32 0, i32 2
  %8 = load ptr, ptr %7, align 8
  %9 = load ptr, ptr %8, align 8
  %10 = getelementptr inbounds %class.anon.436, ptr %this1, i32 0, i32 3
  %11 = load ptr, ptr %10, align 8
  %12 = getelementptr inbounds %class.anon.436, ptr %this1, i32 0, i32 4
  %13 = load ptr, ptr %12, align 8
  %call = call noundef i64 @_ZNK8facebook5velox9functions12_GLOBAL__N_116ArraySumFunctionIilE9applyCoreILb1ERZNKS4_12applyNonFlatILb1EEEvRKNS0_17SelectivityVectorERNS0_4exec7EvalCtxEPNS0_11ArrayVectorERNSA_18LocalDecodedVectorEPNS0_10FlatVectorIlEEEUliE_RZNKS6_ILb1EEEvS9_SC_SE_SG_SJ_EUliE0_EEliPKSD_OT0_OT1_(ptr noundef nonnull align 8 dereferenceable(8) %1, i32 noundef %6, ptr noundef %9, ptr noundef nonnull align 8 dereferenceable(8) %11, ptr noundef nonnull align 8 dereferenceable(8) %13)
  call void @_ZN8facebook5velox10FlatVectorIlE3setEil(ptr noundef nonnull align 8 dereferenceable(216) %4, i32 noundef %5, i64 noundef %call)
  ret void
}