; Function Attrs: mustprogress uwtable
define internal fastcc void @_ZZNK8facebook5velox9functions12_GLOBAL__N_116ArraySumFunctionIilE9applyCoreILb1EZNKS4_12applyNonFlatILb1EEEvRKNS0_17SelectivityVectorERNS0_4exec7EvalCtxEPNS0_11ArrayVectorERNSA_18LocalDecodedVectorEPNS0_10FlatVectorIlEEEUliE_ZNKS6_ILb1EEEvS9_SC_SE_SG_SJ_EUliE0_EEvS9_SC_PKSD_SJ_OT0_OT1_ENKUlT_E_clIiEEDaSS_(ptr nocapture noundef nonnull readonly align 8 dereferenceable(40) %this, i32 noundef %row) unnamed_addr #0 align 2 {
entry:
  %0 = getelementptr inbounds i8, ptr %this, i64 8
  %1 = load ptr, ptr %0, align 8
  %2 = load ptr, ptr %1, align 8
  %3 = getelementptr inbounds i8, ptr %this, i64 16
  %4 = load ptr, ptr %3, align 8
  %5 = load ptr, ptr %4, align 8
  %6 = getelementptr inbounds i8, ptr %this, i64 24
  %7 = load ptr, ptr %6, align 8
  %8 = getelementptr inbounds i8, ptr %this, i64 32
  %9 = load ptr, ptr %8, align 8
  %10 = getelementptr i8, ptr %5, i64 112
  %.val = load ptr, ptr %10, align 8
  %11 = getelementptr i8, ptr %5, i64 128
  %.val2 = load ptr, ptr %11, align 8
  %.val3 = load ptr, ptr %7, align 8
  %.val4 = load ptr, ptr %9, align 8
  %call = tail call fastcc noundef i64 @_ZNK8facebook5velox9functions12_GLOBAL__N_116ArraySumFunctionIilE9applyCoreILb1ERZNKS4_12applyNonFlatILb1EEEvRKNS0_17SelectivityVectorERNS0_4exec7EvalCtxEPNS0_11ArrayVectorERNSA_18LocalDecodedVectorEPNS0_10FlatVectorIlEEEUliE_RZNKS6_ILb1EEEvS9_SC_SE_SG_SJ_EUliE0_EEliPKSD_OT0_OT1_(i32 noundef %row, ptr %.val, ptr %.val2, ptr %.val3, ptr %.val4)
  %rawValues_.i.i = getelementptr inbounds i8, ptr %2, i64 152
  %12 = load ptr, ptr %rawValues_.i.i, align 8
  %cmp.i.i = icmp eq ptr %12, null
  br i1 %cmp.i.i, label %if.then.i.i, label %_ZN8facebook5velox10FlatVectorIlE12ensureValuesEv.exit.i

if.then.i.i:                                      ; preds = %entry
  %call.i4.i = tail call noundef ptr @_ZN8facebook5velox10FlatVectorIlE16mutableRawValuesEv(ptr noundef nonnull align 8 dereferenceable(216) %2)
  %.pre.i = load ptr, ptr %rawValues_.i.i, align 8
  br label %_ZN8facebook5velox10FlatVectorIlE12ensureValuesEv.exit.i

_ZN8facebook5velox10FlatVectorIlE12ensureValuesEv.exit.i: ; preds = %if.then.i.i, %entry
  %13 = phi ptr [ %12, %entry ], [ %.pre.i, %if.then.i.i ]
  %idxprom.i = sext i32 %row to i64
  %arrayidx.i = getelementptr inbounds i64, ptr %13, i64 %idxprom.i
  store i64 %call, ptr %arrayidx.i, align 8
  %nulls_.i = getelementptr inbounds i8, ptr %2, i64 32
  %14 = load ptr, ptr %nulls_.i, align 8
  %cmp.i5.not.i = icmp eq ptr %14, null
  br i1 %cmp.i5.not.i, label %_ZN8facebook5velox10FlatVectorIlE3setEil.exit, label %if.end.i.i

if.end.i.i:                                       ; preds = %_ZN8facebook5velox10FlatVectorIlE12ensureValuesEv.exit.i
  %length_.i.i = getelementptr inbounds i8, ptr %2, i64 56
  %15 = load i32, ptr %length_.i.i, align 8
  tail call void @_ZN8facebook5velox10BaseVector19ensureNullsCapacityEib(ptr noundef nonnull align 8 dereferenceable(99) %2, i32 noundef %15, i1 noundef zeroext true)
  %16 = load ptr, ptr %nulls_.i, align 8
  %vtable.i.i = load ptr, ptr %16, align 8
  %vfn.i.i = getelementptr inbounds i8, ptr %vtable.i.i, i64 24
  %17 = load ptr, ptr %vfn.i.i, align 8
  %call.i.i = tail call noundef zeroext i1 %17(ptr noundef nonnull align 8 dereferenceable(64) %16)
  br i1 %call.i.i, label %if.then.i8.i, label %_ZNK8facebook5velox6Buffer9asMutableImEEPT_v.exit.i

if.then.i8.i:                                     ; preds = %if.end.i.i
  tail call void @llvm.trap()
  unreachable

_ZNK8facebook5velox6Buffer9asMutableImEEPT_v.exit.i: ; preds = %if.end.i.i
  %data_.i.i = getelementptr inbounds i8, ptr %16, i64 16
  %18 = load ptr, ptr %data_.i.i, align 8
  %rem.i.i.i.i = and i32 %row, 7
  %shl.i.i.i.i = shl nuw nsw i32 1, %rem.i.i.i.i
  %div2.i.i.i.i = lshr i32 %row, 3
  %idxprom.i.i.i.i = zext nneg i32 %div2.i.i.i.i to i64
  %arrayidx.i.i.i.i = getelementptr inbounds i8, ptr %18, i64 %idxprom.i.i.i.i
  %19 = load i8, ptr %arrayidx.i.i.i.i, align 1
  %20 = trunc i32 %shl.i.i.i.i to i8
  %conv1.i.i.i.i = or i8 %19, %20
  store i8 %conv1.i.i.i.i, ptr %arrayidx.i.i.i.i, align 1
  br label %_ZN8facebook5velox10FlatVectorIlE3setEil.exit

_ZN8facebook5velox10FlatVectorIlE3setEil.exit:    ; preds = %_ZN8facebook5velox10FlatVectorIlE12ensureValuesEv.exit.i, %_ZNK8facebook5velox6Buffer9asMutableImEEPT_v.exit.i
  ret void
}